target datalayout = "e-m:e-p270:32:32-p271:32:32-p272:64:64-i64:64-i128:128-f80:128-n8:16:32:64-S128"
target triple = "x86_64-unknown-linux-gnu"

%"class.Assimp::DefaultIOStream" = type { %"class.Assimp::IOStream", ptr, %"class.std::__cxx11::basic_string", i64 }
%"class.Assimp::IOStream" = type { ptr }
%"class.std::__cxx11::basic_string" = type { %"struct.std::__cxx11::basic_string<char>::_Alloc_hider", i64, %union.anon }
%"struct.std::__cxx11::basic_string<char>::_Alloc_hider" = type { ptr }
%union.anon = type { i64, [8 x i8] }

; Function Attrs: mustprogress uwtable
define internal noundef i32 @_ZN12_GLOBAL__N_112select_fseekILm8EEEiP8_IO_FILEli(ptr noundef %file, i64 noundef %offset, i32 noundef %origin) #5 {
entry:
  %file.addr = alloca ptr, align 8
  %offset.addr = alloca i64, align 8
  %origin.addr = alloca i32, align 4
  store ptr %file, ptr %file.addr, align 8
  store i64 %offset, ptr %offset.addr, align 8
  store i32 %origin, ptr %origin.addr, align 4
  %0 = load ptr, ptr %file.addr, align 8
  %1 = load i64, ptr %offset.addr, align 8
  %2 = load i32, ptr %origin.addr, align 4
  %call = call i32 @fseek(ptr noundef %0, i64 noundef %1, i32 noundef %2)
  ret i32 %call
}

; Function Attrs: mustprogress uwtable
define noundef i32 @_ZN6Assimp15DefaultIOStream4SeekEm8aiOrigin(ptr noundef nonnull align 8 dereferenceable(56) %this, i64 noundef %pOffset, i32 noundef %pOrigin) unnamed_addr #5 align 2 {
entry:
  %retval = alloca i32, align 4
  %this.addr = alloca ptr, align 8
  %pOffset.addr = alloca i64, align 8
  %pOrigin.addr = alloca i32, align 4
  store ptr %this, ptr %this.addr, align 8
  store i64 %pOffset, ptr %pOffset.addr, align 8
  store i32 %pOrigin, ptr %pOrigin.addr, align 4
  %this1 = load ptr, ptr %this.addr, align 8
  %mFile = getelementptr inbounds %"class.Assimp::DefaultIOStream", ptr %this1, i32 0, i32 1
  %0 = load ptr, ptr %mFile, align 8
  %tobool = icmp ne ptr %0, null
  br i1 %tobool, label %if.end, label %if.then

if.then:                                          ; preds = %entry
  store i32 -1, ptr %retval, align 4
  br label %return

if.end:                                           ; preds = %entry
  %mFile2 = getelementptr inbounds %"class.Assimp::DefaultIOStream", ptr %this1, i32 0, i32 1
  %1 = load ptr, ptr %mFile2, align 8
  %2 = load i64, ptr %pOffset.addr, align 8
  %3 = load i32, ptr %pOrigin.addr, align 4
  %call = call noundef i32 @_ZN12_GLOBAL__N_112select_fseekILm8EEEiP8_IO_FILEli(ptr noundef %1, i64 noundef %2, i32 noundef %3)
  %cmp = icmp eq i32 0, %call
  %cond = select i1 %cmp, i32 0, i32 -1
  store i32 %cond, ptr %retval, align 4
  br label %return

return:                                           ; preds = %if.end, %if.then
  %4 = load i32, ptr %retval, align 4
  ret i32 %4
}