; Function Attrs: mustprogress nofree nounwind uwtable
define noundef i32 @_ZN6Assimp15DefaultIOStream4SeekEm8aiOrigin(ptr nocapture noundef nonnull readonly align 8 dereferenceable(56) %this, i64 noundef %pOffset, i32 noundef %pOrigin) unnamed_addr #3 align 2 {
entry:
  %mFile = getelementptr inbounds i8, ptr %this, i64 8
  %0 = load ptr, ptr %mFile, align 8
  %tobool.not = icmp eq ptr %0, null
  br i1 %tobool.not, label %return, label %if.end

if.end:                                           ; preds = %entry
  %call.i = tail call noundef i32 @fseek(ptr noundef nonnull %0, i64 noundef %pOffset, i32 noundef %pOrigin)
  %cmp = icmp ne i32 %call.i, 0
  %cond = sext i1 %cmp to i32
  br label %return

return:                                           ; preds = %entry, %if.end
  %retval.0 = phi i32 [ %cond, %if.end ], [ -1, %entry ]
  ret i32 %retval.0
}